; Function Attrs: mustprogress uwtable
define noundef zeroext i1 @_ZNK32pxrInternal_v0_24__pxrReserved__7UsdPrim11HasPropertyERKNS_7TfTokenE(ptr noundef nonnull align 8 dereferenceable(32) %0, ptr noundef nonnull align 8 dereferenceable(8) %1) local_unnamed_addr #0 align 2 personality ptr @__gxx_personality_v0 {
  %3 = alloca %"class.pxrInternal_v0_24__pxrReserved__::UsdProperty", align 8
  call void @_ZNK32pxrInternal_v0_24__pxrReserved__7UsdPrim11GetPropertyERKNS_7TfTokenE(ptr dead_on_unwind nonnull writable sret(%"class.pxrInternal_v0_24__pxrReserved__::UsdProperty") align 8 %3, ptr noundef nonnull align 8 dereferenceable(32) %0, ptr noundef nonnull align 8 dereferenceable(8) %1)
  %4 = load i32, ptr %3, align 8
  switch i32 %4, label %_ZNK32pxrInternal_v0_24__pxrReserved__9UsdObjectcvbEv.exit [
    i32 4, label %5
    i32 3, label %5
    i32 1, label %5
  ]

5:                                                ; preds = %2, %2, %2
  %6 = getelementptr inbounds nuw i8, ptr %3, i64 8
  %7 = load ptr, ptr %6, align 8
  %.not.i.i.i = icmp eq ptr %7, null
  br i1 %.not.i.i.i, label %_ZNK32pxrInternal_v0_24__pxrReserved__9UsdObjectcvbEv.exit, label %_ZNK32pxrInternal_v0_24__pxrReserved__18Usd_PrimDataHandlecvbEv.exit.i.i

_ZNK32pxrInternal_v0_24__pxrReserved__18Usd_PrimDataHandlecvbEv.exit.i.i: ; preds = %5
  %8 = getelementptr inbounds nuw i8, ptr %7, i64 56
  %9 = load i64, ptr %8, align 8
  %10 = and i64 %9, 2048
  %.not3.i.i.i = icmp eq i64 %10, 0
  br i1 %.not3.i.i.i, label %11, label %_ZNK32pxrInternal_v0_24__pxrReserved__9UsdObjectcvbEv.exit

11:                                               ; preds = %_ZNK32pxrInternal_v0_24__pxrReserved__18Usd_PrimDataHandlecvbEv.exit.i.i
  %12 = icmp eq i32 %4, 1
  br i1 %12, label %_ZNK32pxrInternal_v0_24__pxrReserved__9UsdObjectcvbEv.exit, label %13

13:                                               ; preds = %11
  %14 = invoke noundef i32 @_ZNK32pxrInternal_v0_24__pxrReserved__9UsdObject20_GetDefiningSpecTypeEv(ptr noundef nonnull align 8 dereferenceable(32) %3)
          to label %.noexc unwind label %55

.noexc:                                           ; preds = %13
  %15 = load i32, ptr %3, align 8
  %16 = icmp eq i32 %15, 3
  %17 = icmp eq i32 %14, 1
  %or.cond.i.i = and i1 %17, %16
  br i1 %or.cond.i.i, label %_ZNK32pxrInternal_v0_24__pxrReserved__9UsdObjectcvbEv.exit, label %18

18:                                               ; preds = %.noexc
  %19 = icmp eq i32 %15, 4
  %20 = icmp eq i32 %14, 8
  %21 = and i1 %20, %19
  br label %_ZNK32pxrInternal_v0_24__pxrReserved__9UsdObjectcvbEv.exit

_ZNK32pxrInternal_v0_24__pxrReserved__9UsdObjectcvbEv.exit: ; preds = %18, %.noexc, %11, %_ZNK32pxrInternal_v0_24__pxrReserved__18Usd_PrimDataHandlecvbEv.exit.i.i, %5, %2
  %.0.i.i = phi i1 [ false, %_ZNK32pxrInternal_v0_24__pxrReserved__18Usd_PrimDataHandlecvbEv.exit.i.i ], [ false, %2 ], [ true, %11 ], [ %21, %18 ], [ true, %.noexc ], [ false, %5 ]
  %22 = getelementptr inbounds nuw i8, ptr %3, i64 24
  %23 = load ptr, ptr %22, align 8
  %24 = ptrtoint ptr %23 to i64
  %25 = and i64 %24, 7
  %.not.i.i.i.i = icmp eq i64 %25, 0
  br i1 %.not.i.i.i.i, label %_ZN32pxrInternal_v0_24__pxrReserved__7TfTokenD2Ev.exit.i.i, label %26

26:                                               ; preds = %_ZNK32pxrInternal_v0_24__pxrReserved__9UsdObjectcvbEv.exit
  %27 = and i64 %24, -8
  %28 = inttoptr i64 %27 to ptr
  %29 = atomicrmw sub ptr %28, i32 2 release, align 4
  br label %_ZN32pxrInternal_v0_24__pxrReserved__7TfTokenD2Ev.exit.i.i

_ZN32pxrInternal_v0_24__pxrReserved__7TfTokenD2Ev.exit.i.i: ; preds = %26, %_ZNK32pxrInternal_v0_24__pxrReserved__9UsdObjectcvbEv.exit
  %30 = getelementptr inbounds nuw i8, ptr %3, i64 16
  %31 = load i32, ptr %30, align 8
  %.not.i.i1.i.i = icmp eq i32 %31, 0
  br i1 %.not.i.i1.i.i, label %_ZN32pxrInternal_v0_24__pxrReserved__7SdfPathD2Ev.exit.i.i, label %32

32:                                               ; preds = %_ZN32pxrInternal_v0_24__pxrReserved__7TfTokenD2Ev.exit.i.i
  %33 = and i32 %31, 255
  %34 = lshr i32 %31, 8
  %35 = zext nneg i32 %33 to i64
  %36 = getelementptr inbounds [257 x ptr], ptr @_ZN32pxrInternal_v0_24__pxrReserved__8Sdf_PoolINS_15Sdf_PathPrimTagELj24ELj8ELj16384EE13_regionStartsE, i64 0, i64 %35
  %37 = load ptr, ptr %36, align 8
  %38 = mul nuw nsw i32 %34, 24
  %39 = zext nneg i32 %38 to i64
  %40 = getelementptr inbounds i8, ptr %37, i64 %39
  %41 = getelementptr inbounds nuw i8, ptr %40, i64 8
  %42 = atomicrmw sub ptr %41, i32 1 seq_cst, align 4
  %43 = and i32 %42, 2147483647
  %44 = icmp eq i32 %43, 1
  br i1 %44, label %45, label %_ZN32pxrInternal_v0_24__pxrReserved__7SdfPathD2Ev.exit.i.i

45:                                               ; preds = %32
  invoke void @_ZNK32pxrInternal_v0_24__pxrReserved__12Sdf_PathNode8_DestroyEv(ptr noundef nonnull align 8 dereferenceable(16) %40)
          to label %_ZN32pxrInternal_v0_24__pxrReserved__7SdfPathD2Ev.exit.i.i unwind label %46

46:                                               ; preds = %45
  %47 = landingpad { ptr, i32 }
          catch ptr null
  %48 = extractvalue { ptr, i32 } %47, 0
  call void @__clang_call_terminate(ptr %48) #23
  unreachable

_ZN32pxrInternal_v0_24__pxrReserved__7SdfPathD2Ev.exit.i.i: ; preds = %45, %32, %_ZN32pxrInternal_v0_24__pxrReserved__7TfTokenD2Ev.exit.i.i
  %49 = getelementptr inbounds nuw i8, ptr %3, i64 8
  %50 = load ptr, ptr %49, align 8
  %.not.i.i.i.i.i = icmp eq ptr %50, null
  br i1 %.not.i.i.i.i.i, label %_ZN32pxrInternal_v0_24__pxrReserved__11UsdPropertyD2Ev.exit, label %51

51:                                               ; preds = %_ZN32pxrInternal_v0_24__pxrReserved__7SdfPathD2Ev.exit.i.i
  %52 = getelementptr inbounds nuw i8, ptr %50, i64 48
  %53 = atomicrmw sub ptr %52, i64 1 release, align 8
  %.not1.i.i.i.i.i = icmp eq i64 %53, 1
  br i1 %.not1.i.i.i.i.i, label %54, label %_ZN32pxrInternal_v0_24__pxrReserved__11UsdPropertyD2Ev.exit

54:                                               ; preds = %51
  call void @_ZN32pxrInternal_v0_24__pxrReserved__12Usd_PrimDataD1Ev(ptr noundef nonnull align 8 dereferenceable(64) %50) #18
  call void @_ZdlPvm(ptr noundef nonnull %50, i64 noundef 64) #25
  br label %_ZN32pxrInternal_v0_24__pxrReserved__11UsdPropertyD2Ev.exit

_ZN32pxrInternal_v0_24__pxrReserved__11UsdPropertyD2Ev.exit: ; preds = %_ZN32pxrInternal_v0_24__pxrReserved__7SdfPathD2Ev.exit.i.i, %51, %54
  ret i1 %.0.i.i

55:                                               ; preds = %13
  %56 = landingpad { ptr, i32 }
          cleanup
  call void @_ZN32pxrInternal_v0_24__pxrReserved__11UsdPropertyD2Ev(ptr noundef nonnull align 8 dereferenceable(32) %3) #18
  resume { ptr, i32 } %56
}